; Function Attrs: mustprogress uwtable
define void @_ZN6colvar9polar_phi14calc_gradientsEv(ptr noundef nonnull readonly align 8 captures(none) dereferenceable(1640) %0) unnamed_addr #2 align 2 {
  %2 = alloca %"class.colvarmodule::rvector", align 8
  %3 = getelementptr inbounds nuw i8, ptr %0, i64 1608
  %4 = load ptr, ptr %3, align 8, !tbaa !4
  call void @llvm.lifetime.start.p0(i64 24, ptr nonnull %2) #24
  %5 = getelementptr inbounds nuw i8, ptr %0, i64 1632
  %6 = load double, ptr %5, align 8, !tbaa !87
  %7 = tail call noundef double @sin(double noundef %6) #24, !tbaa !89
  %8 = fmul double %7, 0xC04CA5DC1A63C1F8
  %9 = getelementptr inbounds nuw i8, ptr %0, i64 1616
  %10 = load double, ptr %9, align 8, !tbaa !88
  %11 = getelementptr inbounds nuw i8, ptr %0, i64 1624
  %12 = load double, ptr %11, align 8, !tbaa !87
  %13 = tail call noundef double @sin(double noundef %12) #24, !tbaa !89
  %14 = fmul double %10, %13
  %15 = fdiv double %8, %14
  %16 = tail call noundef double @cos(double noundef %6) #24, !tbaa !89
  %17 = fmul double %16, 0x404CA5DC1A63C1F8
  %18 = tail call noundef double @sin(double noundef %12) #24, !tbaa !89
  %19 = fmul double %10, %18
  %20 = fdiv double %17, %19
  store double %15, ptr %2, align 8, !tbaa !93
  %21 = getelementptr inbounds nuw i8, ptr %2, i64 8
  store double %20, ptr %21, align 8, !tbaa !94
  %22 = getelementptr inbounds nuw i8, ptr %2, i64 16
  store double 0.000000e+00, ptr %22, align 8, !tbaa !95
  call void @_ZN12colvarmodule10atom_group21set_weighted_gradientERKNS_7rvectorE(ptr noundef nonnull align 8 dereferenceable(1496) %4, ptr noundef nonnull align 8 dereferenceable(24) %2)
  call void @llvm.lifetime.end.p0(i64 24, ptr nonnull %2) #24
  ret void
}